target datalayout = "e-m:e-p270:32:32-p271:32:32-p272:64:64-i64:64-i128:128-f80:128-n8:16:32:64-S128"
target triple = "x86_64-pc-linux-gnu"

; Function Attrs: inlinehint noreturn nounwind uwtable
define internal void @fatal_error_exit(i32 noundef %0) #9 {
  %2 = alloca i32, align 4
  store i32 %0, ptr %2, align 4, !tbaa !4
  %3 = load i32, ptr %2, align 4, !tbaa !4
  %4 = icmp slt i32 %3, 0
  br i1 %4, label %5, label %6

5:                                                ; preds = %1
  call void @abort() #17
  unreachable

6:                                                ; preds = %1
  %7 = load i32, ptr %2, align 4, !tbaa !4
  call void @exit(i32 noundef %7) #17
  unreachable
}