; Function Attrs: inlinehint nofree noreturn nounwind uwtable
define internal fastcc void @fatal_error_exit(i32 noundef range(i32 -1, 2) %0) unnamed_addr #14 {
  %2 = icmp slt i32 %0, 0
  br i1 %2, label %3, label %4

3:                                                ; preds = %1
  tail call void @abort() #28
  unreachable

4:                                                ; preds = %1
  tail call void @exit(i32 noundef %0) #28
  unreachable
}